target datalayout = "e-m:e-p270:32:32-p271:32:32-p272:64:64-i64:64-i128:128-f80:128-n8:16:32:64-S128"
target triple = "x86_64-pc-linux-gnu"

%struct.Float4X4 = type { %union.anon }
%union.anon = type { %struct.anon }
%struct.anon = type { float, float, float, float, float, float, float, float, float, float, float, float, float, float, float, float }
%struct.SDL_Rect = type { i32, i32, i32, i32 }
%struct.VULKAN_RenderData = type { ptr, ptr, i8, ptr, i8, ptr, %struct.VkPhysicalDeviceProperties, %struct.VkPhysicalDeviceMemoryProperties, %struct.VkPhysicalDeviceFeatures, ptr, ptr, ptr, i8, i32, i32, ptr, ptr, ptr, i32, ptr, ptr, %struct.VkSurfaceCapabilitiesKHR, ptr, i8, i32, i32, ptr, [2 x ptr], ptr, [3 x ptr], [3 x ptr], ptr, ptr, [256 x %struct.VULKAN_Buffer], %struct.VULKAN_VertexShaderConstants, ptr, ptr, ptr, ptr, i32, i32, [8 x ptr], ptr, ptr, i32, i32, i32, ptr, ptr, i8, i8, i8, i32, i32, i32, %struct.VkSurfaceFormatKHR, %struct.VkExtent2D, i32, i32, ptr, ptr, ptr, ptr, ptr, ptr, i32, ptr, ptr, i32, i32, ptr, i32, i32, ptr, i8, i8, %struct.SDL_Rect, %struct.SDL_Rect, i32, i8, %struct.Float4X4, %struct.VkComponentMapping, i32, i8 }
%struct.VkPhysicalDeviceProperties = type { i32, i32, i32, i32, i32, [256 x i8], [16 x i8], %struct.VkPhysicalDeviceLimits, %struct.VkPhysicalDeviceSparseProperties }
%struct.VkPhysicalDeviceLimits = type { i32, i32, i32, i32, i32, i32, i32, i32, i32, i32, i32, i64, i64, i32, i32, i32, i32, i32, i32, i32, i32, i32, i32, i32, i32, i32, i32, i32, i32, i32, i32, i32, i32, i32, i32, i32, i32, i32, i32, i32, i32, i32, i32, i32, i32, i32, i32, i32, i32, i32, i32, i32, [3 x i32], i32, [3 x i32], i32, i32, i32, i32, i32, float, float, i32, [2 x i32], [2 x float], i32, i64, i64, i64, i64, i32, i32, i32, i32, float, float, i32, i32, i32, i32, i32, i32, i32, i32, i32, i32, i32, i32, i32, i32, i32, i32, float, i32, i32, i32, i32, [2 x float], [2 x float], float, float, i32, i32, i64, i64, i64 }
%struct.VkPhysicalDeviceSparseProperties = type { i32, i32, i32, i32, i32 }
%struct.VkPhysicalDeviceMemoryProperties = type { i32, [32 x %struct.VkMemoryType], i32, [16 x %struct.VkMemoryHeap] }
%struct.VkMemoryType = type { i32, i32 }
%struct.VkMemoryHeap = type { i64, i32 }
%struct.VkPhysicalDeviceFeatures = type { i32, i32, i32, i32, i32, i32, i32, i32, i32, i32, i32, i32, i32, i32, i32, i32, i32, i32, i32, i32, i32, i32, i32, i32, i32, i32, i32, i32, i32, i32, i32, i32, i32, i32, i32, i32, i32, i32, i32, i32, i32, i32, i32, i32, i32, i32, i32, i32, i32, i32, i32, i32, i32, i32, i32 }
%struct.VkSurfaceCapabilitiesKHR = type { i32, i32, %struct.VkExtent2D, %struct.VkExtent2D, %struct.VkExtent2D, i32, i32, i32, i32, i32 }
%struct.VULKAN_Buffer = type { ptr, ptr, i64, ptr }
%struct.VULKAN_VertexShaderConstants = type { %struct.Float4X4, %struct.Float4X4 }
%struct.VkSurfaceFormatKHR = type { i32, i32 }
%struct.VkExtent2D = type { i32, i32 }
%struct.VkComponentMapping = type { i32, i32, i32, i32 }
%struct.VkDescriptorSetLayoutCreateInfo = type { i32, ptr, i32, i32, ptr }
%struct.VkDescriptorSetLayoutBinding = type { i32, i32, i32, i32, ptr }
%struct.VkPipelineLayoutCreateInfo = type { i32, ptr, i32, i32, ptr, i32, ptr }
%struct.VkPushConstantRange = type { i32, i32, i32 }

@.str.7 = private unnamed_addr constant [24 x i8] c"SDL_RENDER_VULKAN_DEBUG\00", align 1
@.str.8 = private unnamed_addr constant [7 x i8] c"%s: %s\00", align 1
@vkCreateDescriptorSetLayout = internal global ptr null, align 8
@.str.14 = private unnamed_addr constant [30 x i8] c"vkCreateDescriptorSetLayout()\00", align 1
@vkCreatePipelineLayout = internal global ptr null, align 8
@.str.15 = private unnamed_addr constant [25 x i8] c"vkCreatePipelineLayout()\00", align 1

; Function Attrs: nounwind uwtable
define internal i32 @VULKAN_CreateDescriptorSetAndPipelineLayout(ptr noundef %0, ptr noundef %1, ptr noundef %2, ptr noundef %3) #0 {
  %5 = alloca i32, align 4
  %6 = alloca ptr, align 8
  %7 = alloca ptr, align 8
  %8 = alloca ptr, align 8
  %9 = alloca ptr, align 8
  %10 = alloca i32, align 4
  %11 = alloca %struct.VkDescriptorSetLayoutCreateInfo, align 8
  %12 = alloca [2 x %struct.VkDescriptorSetLayoutBinding], align 16
  %13 = alloca i32, align 4
  %14 = alloca %struct.VkPipelineLayoutCreateInfo, align 8
  %15 = alloca %struct.VkPushConstantRange, align 4
  store ptr %0, ptr %6, align 8
  store ptr %1, ptr %7, align 8
  store ptr %2, ptr %8, align 8
  store ptr %3, ptr %9, align 8
  call void @llvm.lifetime.start.p0(i64 4, ptr %10) #6
  call void @llvm.lifetime.start.p0(i64 32, ptr %11) #6
  call void @llvm.memset.p0.i64(ptr align 8 %11, i8 0, i64 32, i1 false)
  %16 = getelementptr inbounds nuw %struct.VkDescriptorSetLayoutCreateInfo, ptr %11, i32 0, i32 0
  store i32 32, ptr %16, align 8
  %17 = getelementptr inbounds nuw %struct.VkDescriptorSetLayoutCreateInfo, ptr %11, i32 0, i32 2
  store i32 0, ptr %17, align 8
  call void @llvm.lifetime.start.p0(i64 48, ptr %12) #6
  %18 = getelementptr inbounds [2 x %struct.VkDescriptorSetLayoutBinding], ptr %12, i64 0, i64 0
  %19 = getelementptr inbounds nuw %struct.VkDescriptorSetLayoutBinding, ptr %18, i32 0, i32 0
  store i32 1, ptr %19, align 16
  %20 = getelementptr inbounds [2 x %struct.VkDescriptorSetLayoutBinding], ptr %12, i64 0, i64 0
  %21 = getelementptr inbounds nuw %struct.VkDescriptorSetLayoutBinding, ptr %20, i32 0, i32 2
  store i32 1, ptr %21, align 8
  %22 = getelementptr inbounds [2 x %struct.VkDescriptorSetLayoutBinding], ptr %12, i64 0, i64 0
  %23 = getelementptr inbounds nuw %struct.VkDescriptorSetLayoutBinding, ptr %22, i32 0, i32 1
  store i32 6, ptr %23, align 4
  %24 = getelementptr inbounds [2 x %struct.VkDescriptorSetLayoutBinding], ptr %12, i64 0, i64 0
  %25 = getelementptr inbounds nuw %struct.VkDescriptorSetLayoutBinding, ptr %24, i32 0, i32 3
  store i32 16, ptr %25, align 4
  %26 = getelementptr inbounds [2 x %struct.VkDescriptorSetLayoutBinding], ptr %12, i64 0, i64 0
  %27 = getelementptr inbounds nuw %struct.VkDescriptorSetLayoutBinding, ptr %26, i32 0, i32 4
  store ptr null, ptr %27, align 16
  %28 = getelementptr inbounds [2 x %struct.VkDescriptorSetLayoutBinding], ptr %12, i64 0, i64 1
  %29 = getelementptr inbounds nuw %struct.VkDescriptorSetLayoutBinding, ptr %28, i32 0, i32 0
  store i32 0, ptr %29, align 8
  %30 = getelementptr inbounds [2 x %struct.VkDescriptorSetLayoutBinding], ptr %12, i64 0, i64 1
  %31 = getelementptr inbounds nuw %struct.VkDescriptorSetLayoutBinding, ptr %30, i32 0, i32 2
  store i32 1, ptr %31, align 8
  %32 = getelementptr inbounds [2 x %struct.VkDescriptorSetLayoutBinding], ptr %12, i64 0, i64 1
  %33 = getelementptr inbounds nuw %struct.VkDescriptorSetLayoutBinding, ptr %32, i32 0, i32 1
  store i32 1, ptr %33, align 4
  %34 = getelementptr inbounds [2 x %struct.VkDescriptorSetLayoutBinding], ptr %12, i64 0, i64 1
  %35 = getelementptr inbounds nuw %struct.VkDescriptorSetLayoutBinding, ptr %34, i32 0, i32 3
  store i32 16, ptr %35, align 4
  %36 = load ptr, ptr %7, align 8
  %37 = icmp ne ptr %36, null
  br i1 %37, label %38, label %39

38:                                               ; preds = %4
  br label %40

39:                                               ; preds = %4
  br label %40

40:                                               ; preds = %39, %38
  %41 = phi ptr [ %7, %38 ], [ null, %39 ]
  %42 = getelementptr inbounds [2 x %struct.VkDescriptorSetLayoutBinding], ptr %12, i64 0, i64 1
  %43 = getelementptr inbounds nuw %struct.VkDescriptorSetLayoutBinding, ptr %42, i32 0, i32 4
  store ptr %41, ptr %43, align 8
  %44 = getelementptr inbounds nuw %struct.VkDescriptorSetLayoutCreateInfo, ptr %11, i32 0, i32 3
  store i32 2, ptr %44, align 4
  %45 = getelementptr inbounds [2 x %struct.VkDescriptorSetLayoutBinding], ptr %12, i64 0, i64 0
  %46 = getelementptr inbounds nuw %struct.VkDescriptorSetLayoutCreateInfo, ptr %11, i32 0, i32 4
  store ptr %45, ptr %46, align 8
  %47 = load ptr, ptr @vkCreateDescriptorSetLayout, align 8
  %48 = load ptr, ptr %6, align 8
  %49 = getelementptr inbounds nuw %struct.VULKAN_RenderData, ptr %48, i32 0, i32 11
  %50 = load ptr, ptr %49, align 8
  %51 = load ptr, ptr %8, align 8
  %52 = call i32 %47(ptr noundef %50, ptr noundef %11, ptr noundef null, ptr noundef %51)
  store i32 %52, ptr %10, align 4
  %53 = load i32, ptr %10, align 4
  %54 = icmp ne i32 %53, 0
  br i1 %54, label %55, label %65

55:                                               ; preds = %40
  %56 = call zeroext i1 @SDL_GetHintBoolean_REAL(ptr noundef @.str.7, i1 noundef zeroext false)
  br i1 %56, label %57, label %60

57:                                               ; preds = %55
  %58 = load i32, ptr %10, align 4
  %59 = call ptr @SDL_Vulkan_GetResultString(i32 noundef %58)
  call void (i32, ptr, ...) @SDL_LogError_REAL(i32 noundef 6, ptr noundef @.str.8, ptr noundef @.str.14, ptr noundef %59)
  call void @llvm.debugtrap()
  br label %60

60:                                               ; preds = %57, %55
  %61 = load i32, ptr %10, align 4
  %62 = call ptr @SDL_Vulkan_GetResultString(i32 noundef %61)
  %63 = call zeroext i1 (ptr, ...) @SDL_SetError_REAL(ptr noundef @.str.8, ptr noundef @.str.14, ptr noundef %62)
  %64 = load i32, ptr %10, align 4
  store i32 %64, ptr %5, align 4
  store i32 1, ptr %13, align 4
  br label %96

65:                                               ; preds = %40
  call void @llvm.lifetime.start.p0(i64 48, ptr %14) #6
  call void @llvm.memset.p0.i64(ptr align 8 %14, i8 0, i64 48, i1 false)
  call void @llvm.lifetime.start.p0(i64 12, ptr %15) #6
  %66 = getelementptr inbounds nuw %struct.VkPushConstantRange, ptr %15, i32 0, i32 2
  store i32 128, ptr %66, align 4
  %67 = getelementptr inbounds nuw %struct.VkPushConstantRange, ptr %15, i32 0, i32 1
  store i32 0, ptr %67, align 4
  %68 = getelementptr inbounds nuw %struct.VkPushConstantRange, ptr %15, i32 0, i32 0
  store i32 1, ptr %68, align 4
  %69 = getelementptr inbounds nuw %struct.VkPipelineLayoutCreateInfo, ptr %14, i32 0, i32 0
  store i32 30, ptr %69, align 8
  %70 = getelementptr inbounds nuw %struct.VkPipelineLayoutCreateInfo, ptr %14, i32 0, i32 3
  store i32 1, ptr %70, align 4
  %71 = load ptr, ptr %8, align 8
  %72 = getelementptr inbounds nuw %struct.VkPipelineLayoutCreateInfo, ptr %14, i32 0, i32 4
  store ptr %71, ptr %72, align 8
  %73 = getelementptr inbounds nuw %struct.VkPipelineLayoutCreateInfo, ptr %14, i32 0, i32 5
  store i32 1, ptr %73, align 8
  %74 = getelementptr inbounds nuw %struct.VkPipelineLayoutCreateInfo, ptr %14, i32 0, i32 6
  store ptr %15, ptr %74, align 8
  %75 = load ptr, ptr @vkCreatePipelineLayout, align 8
  %76 = load ptr, ptr %6, align 8
  %77 = getelementptr inbounds nuw %struct.VULKAN_RenderData, ptr %76, i32 0, i32 11
  %78 = load ptr, ptr %77, align 8
  %79 = load ptr, ptr %9, align 8
  %80 = call i32 %75(ptr noundef %78, ptr noundef %14, ptr noundef null, ptr noundef %79)
  store i32 %80, ptr %10, align 4
  %81 = load i32, ptr %10, align 4
  %82 = icmp ne i32 %81, 0
  br i1 %82, label %83, label %93

83:                                               ; preds = %65
  %84 = call zeroext i1 @SDL_GetHintBoolean_REAL(ptr noundef @.str.7, i1 noundef zeroext false)
  br i1 %84, label %85, label %88

85:                                               ; preds = %83
  %86 = load i32, ptr %10, align 4
  %87 = call ptr @SDL_Vulkan_GetResultString(i32 noundef %86)
  call void (i32, ptr, ...) @SDL_LogError_REAL(i32 noundef 6, ptr noundef @.str.8, ptr noundef @.str.15, ptr noundef %87)
  call void @llvm.debugtrap()
  br label %88

88:                                               ; preds = %85, %83
  %89 = load i32, ptr %10, align 4
  %90 = call ptr @SDL_Vulkan_GetResultString(i32 noundef %89)
  %91 = call zeroext i1 (ptr, ...) @SDL_SetError_REAL(ptr noundef @.str.8, ptr noundef @.str.15, ptr noundef %90)
  %92 = load i32, ptr %10, align 4
  store i32 %92, ptr %5, align 4
  store i32 1, ptr %13, align 4
  br label %95

93:                                               ; preds = %65
  %94 = load i32, ptr %10, align 4
  store i32 %94, ptr %5, align 4
  store i32 1, ptr %13, align 4
  br label %95

95:                                               ; preds = %93, %88
  call void @llvm.lifetime.end.p0(i64 12, ptr %15) #6
  call void @llvm.lifetime.end.p0(i64 48, ptr %14) #6
  br label %96

96:                                               ; preds = %95, %60
  call void @llvm.lifetime.end.p0(i64 48, ptr %12) #6
  call void @llvm.lifetime.end.p0(i64 32, ptr %11) #6
  call void @llvm.lifetime.end.p0(i64 4, ptr %10) #6
  %97 = load i32, ptr %5, align 4
  ret i32 %97
}