; Function Attrs: nounwind uwtable
define internal fastcc i32 @VULKAN_CreateDescriptorSetAndPipelineLayout(ptr noundef readonly captures(none) %0, ptr noundef %1, ptr noundef %2, ptr noundef %3) unnamed_addr #0 {
  %5 = alloca ptr, align 8
  %6 = alloca %struct.VkDescriptorSetLayoutCreateInfo, align 8
  %7 = alloca [2 x %struct.VkDescriptorSetLayoutBinding], align 16
  %8 = alloca %struct.VkPipelineLayoutCreateInfo, align 8
  %9 = alloca %struct.VkPushConstantRange, align 4
  store ptr %1, ptr %5, align 8
  call void @llvm.lifetime.start.p0(i64 32, ptr nonnull %6) #8
  call void @llvm.memset.p0.i64(ptr noundef nonnull align 8 dereferenceable(32) %6, i8 0, i64 16, i1 false)
  store i32 32, ptr %6, align 8
  %10 = getelementptr inbounds nuw i8, ptr %6, i64 16
  store i32 0, ptr %10, align 8
  call void @llvm.lifetime.start.p0(i64 48, ptr nonnull %7) #8
  store i32 1, ptr %7, align 16
  %11 = getelementptr inbounds nuw i8, ptr %7, i64 8
  store i32 1, ptr %11, align 8
  %12 = getelementptr inbounds nuw i8, ptr %7, i64 4
  store i32 6, ptr %12, align 4
  %13 = getelementptr inbounds nuw i8, ptr %7, i64 12
  store i32 16, ptr %13, align 4
  %14 = getelementptr inbounds nuw i8, ptr %7, i64 16
  store ptr null, ptr %14, align 16
  %15 = getelementptr inbounds nuw i8, ptr %7, i64 24
  store i32 0, ptr %15, align 8
  %16 = getelementptr inbounds nuw i8, ptr %7, i64 32
  store i32 1, ptr %16, align 16
  %17 = getelementptr inbounds nuw i8, ptr %7, i64 28
  store i32 1, ptr %17, align 4
  %18 = getelementptr inbounds nuw i8, ptr %7, i64 36
  store i32 16, ptr %18, align 4
  %.not = icmp eq ptr %1, null
  %. = select i1 %.not, ptr null, ptr %5
  %19 = getelementptr inbounds nuw i8, ptr %7, i64 40
  store ptr %., ptr %19, align 8
  %20 = getelementptr inbounds nuw i8, ptr %6, i64 20
  store i32 2, ptr %20, align 4
  %21 = getelementptr inbounds nuw i8, ptr %6, i64 24
  store ptr %7, ptr %21, align 8
  %22 = load ptr, ptr @vkCreateDescriptorSetLayout, align 8
  %23 = getelementptr inbounds nuw i8, ptr %0, i64 1632
  %24 = load ptr, ptr %23, align 8
  %25 = call i32 %22(ptr noundef %24, ptr noundef nonnull %6, ptr noundef null, ptr noundef %2) #8
  %.not16 = icmp eq i32 %25, 0
  br i1 %.not16, label %33, label %26

26:                                               ; preds = %4
  %27 = call zeroext i1 @SDL_GetHintBoolean_REAL(ptr noundef nonnull @.str.7, i1 noundef zeroext false) #8
  br i1 %27, label %28, label %30

28:                                               ; preds = %26
  %29 = call ptr @SDL_Vulkan_GetResultString(i32 noundef %25) #8
  call void (i32, ptr, ...) @SDL_LogError_REAL(i32 noundef 6, ptr noundef nonnull @.str.8, ptr noundef nonnull @.str.14, ptr noundef %29) #8
  call void @llvm.debugtrap()
  br label %30

30:                                               ; preds = %28, %26
  %31 = call ptr @SDL_Vulkan_GetResultString(i32 noundef %25) #8
  %32 = call zeroext i1 (ptr, ...) @SDL_SetError_REAL(ptr noundef nonnull @.str.8, ptr noundef nonnull @.str.14, ptr noundef %31) #8
  br label %51

33:                                               ; preds = %4
  call void @llvm.lifetime.start.p0(i64 48, ptr nonnull %8) #8
  call void @llvm.memset.p0.i64(ptr noundef nonnull align 8 dereferenceable(48) %8, i8 0, i64 40, i1 false)
  call void @llvm.lifetime.start.p0(i64 12, ptr nonnull %9) #8
  %34 = getelementptr inbounds nuw i8, ptr %9, i64 8
  store i32 128, ptr %34, align 4
  %35 = getelementptr inbounds nuw i8, ptr %9, i64 4
  store i32 0, ptr %35, align 4
  store i32 1, ptr %9, align 4
  store i32 30, ptr %8, align 8
  %36 = getelementptr inbounds nuw i8, ptr %8, i64 20
  store i32 1, ptr %36, align 4
  %37 = getelementptr inbounds nuw i8, ptr %8, i64 24
  store ptr %2, ptr %37, align 8
  %38 = getelementptr inbounds nuw i8, ptr %8, i64 32
  store i32 1, ptr %38, align 8
  %39 = getelementptr inbounds nuw i8, ptr %8, i64 40
  store ptr %9, ptr %39, align 8
  %40 = load ptr, ptr @vkCreatePipelineLayout, align 8
  %41 = load ptr, ptr %23, align 8
  %42 = call i32 %40(ptr noundef %41, ptr noundef nonnull %8, ptr noundef null, ptr noundef %3) #8
  %.not17 = icmp eq i32 %42, 0
  br i1 %.not17, label %50, label %43

43:                                               ; preds = %33
  %44 = call zeroext i1 @SDL_GetHintBoolean_REAL(ptr noundef nonnull @.str.7, i1 noundef zeroext false) #8
  br i1 %44, label %45, label %47

45:                                               ; preds = %43
  %46 = call ptr @SDL_Vulkan_GetResultString(i32 noundef %42) #8
  call void (i32, ptr, ...) @SDL_LogError_REAL(i32 noundef 6, ptr noundef nonnull @.str.8, ptr noundef nonnull @.str.15, ptr noundef %46) #8
  call void @llvm.debugtrap()
  br label %47

47:                                               ; preds = %45, %43
  %48 = call ptr @SDL_Vulkan_GetResultString(i32 noundef %42) #8
  %49 = call zeroext i1 (ptr, ...) @SDL_SetError_REAL(ptr noundef nonnull @.str.8, ptr noundef nonnull @.str.15, ptr noundef %48) #8
  br label %50

50:                                               ; preds = %33, %47
  call void @llvm.lifetime.end.p0(i64 12, ptr nonnull %9) #8
  call void @llvm.lifetime.end.p0(i64 48, ptr nonnull %8) #8
  br label %51

51:                                               ; preds = %50, %30
  %.0 = phi i32 [ %25, %30 ], [ %42, %50 ]
  call void @llvm.lifetime.end.p0(i64 48, ptr nonnull %7) #8
  call void @llvm.lifetime.end.p0(i64 32, ptr nonnull %6) #8
  ret i32 %.0
}